; Function Attrs: mustprogress nounwind uwtable
define noundef zeroext i1 @_ZN5boost10filesystem12windows_nameERKNSt7__cxx1112basic_stringIcSt11char_traitsIcESaIcEEE(ptr noundef nonnull align 8 dereferenceable(32) %0) local_unnamed_addr #0 {
  %2 = getelementptr inbounds nuw i8, ptr %0, i64 8
  %3 = load i64, ptr %2, align 8, !tbaa !3
  %4 = icmp eq i64 %3, 0
  br i1 %4, label %22, label %5

5:                                                ; preds = %1
  %6 = load ptr, ptr %0, align 8, !tbaa !10
  %7 = load i8, ptr %6, align 1, !tbaa !11
  %.not = icmp eq i8 %7, 32
  br i1 %.not, label %22, label %8

8:                                                ; preds = %5
  %9 = tail call noundef i64 @_ZNKSt7__cxx1112basic_stringIcSt11char_traitsIcESaIcEE13find_first_ofEPKcmm(ptr noundef nonnull align 8 dereferenceable(32) %0, ptr noundef nonnull @_ZN5boost10filesystem12_GLOBAL__N_121windows_invalid_charsE, i64 noundef 0, i64 noundef 39) #2
  %10 = icmp eq i64 %9, -1
  br i1 %10, label %11, label %22

11:                                               ; preds = %8
  %12 = load ptr, ptr %0, align 8, !tbaa !10
  %13 = load i64, ptr %2, align 8, !tbaa !3
  %14 = getelementptr inbounds nuw i8, ptr %12, i64 %13
  %15 = getelementptr inbounds i8, ptr %14, i64 -1
  %16 = load i8, ptr %15, align 1, !tbaa !11
  switch i8 %16, label %.fold.split [
    i8 32, label %22
    i8 46, label %17
  ]

17:                                               ; preds = %11
  %18 = icmp eq i64 %13, 1
  br i1 %18, label %22, label %19

19:                                               ; preds = %17
  %20 = tail call noundef i32 @_ZNKSt7__cxx1112basic_stringIcSt11char_traitsIcESaIcEE7compareEPKc(ptr noundef nonnull align 8 dereferenceable(32) %0, ptr noundef nonnull @.str) #2
  %21 = icmp eq i32 %20, 0
  br label %22

.fold.split:                                      ; preds = %11
  br label %22

22:                                               ; preds = %11, %.fold.split, %17, %19, %8, %5, %1
  %23 = phi i1 [ false, %11 ], [ false, %8 ], [ false, %5 ], [ false, %1 ], [ true, %17 ], [ %21, %19 ], [ true, %.fold.split ]
  ret i1 %23
}